target datalayout = "e-m:e-p270:32:32-p271:32:32-p272:64:64-i64:64-i128:128-f80:128-n8:16:32:64-S128"
target triple = "x86_64-pc-linux-gnu"

%struct.wl_interface = type { ptr, i32, i32, ptr, i32, ptr }
%struct.zwp_primary_selection_device_v1_listener = type { ptr, ptr }
%struct.SDL_WaylandSeat = type { ptr, ptr, ptr, ptr, ptr, %struct.wl_list, i32, i32, %struct.anon, %struct.anon.1, %struct.anon.4, %struct.anon.5, %struct.anon.6 }
%struct.wl_list = type { ptr, ptr }
%struct.anon = type { ptr, ptr, ptr, ptr, ptr, %struct.SDL_WaylandKeyboardRepeat, i64, i16, i16, i32, i8, %struct.anon.0 }
%struct.SDL_WaylandKeyboardRepeat = type { i32, i32, i32, i8, i8, i32, i64, i64, i64, i32, [8 x i8] }
%struct.anon.0 = type { ptr, ptr, ptr, ptr, i32, i32, i32, i32, i32, i32, i32, i32, i32, i32, i32 }
%struct.anon.1 = type { ptr, ptr, ptr, ptr, ptr, ptr, ptr, ptr, i64, i32, i32, %struct.SDL_Point, i32, %struct.anon.2, %struct.anon.3 }
%struct.SDL_Point = type { i32, i32 }
%struct.anon.2 = type { i32, float, i32, float, i64, i32 }
%struct.anon.3 = type { ptr, ptr, ptr, i64, i64, i32 }
%struct.anon.4 = type { ptr, ptr, i64, %struct.wl_list }
%struct.anon.5 = type { ptr, %struct.SDL_Rect, i8, i8 }
%struct.SDL_Rect = type { i32, i32, i32, i32 }
%struct.anon.6 = type { ptr, %struct.wl_list }
%struct.SDL_VideoData = type { i8, ptr, i32, ptr, ptr, ptr, ptr, i32, %struct.anon.7, ptr, ptr, ptr, ptr, ptr, ptr, ptr, ptr, ptr, ptr, ptr, ptr, ptr, ptr, ptr, ptr, ptr, ptr, ptr, ptr, ptr, ptr, %struct.wl_list, ptr, ptr, ptr, ptr, i32, i32, i8, i8 }
%struct.anon.7 = type { ptr }
%struct.SDL_WaylandPrimarySelectionDevice = type { ptr, ptr, i32, ptr, ptr }

@WAYLAND_wl_proxy_marshal_flags = external global ptr, align 8
@WAYLAND_wl_proxy_get_version = external global ptr, align 8
@WAYLAND_wl_proxy_add_listener = external global ptr, align 8
@WAYLAND_wl_proxy_set_user_data = external global ptr, align 8
@primary_selection_device_listener = internal constant %struct.zwp_primary_selection_device_v1_listener { ptr @primary_selection_device_handle_offer, ptr @primary_selection_device_handle_selection }, align 8
@zwp_primary_selection_device_v1_interface = external constant %struct.wl_interface, align 8

; Function Attrs: inlinehint nounwind uwtable
define internal i32 @zwp_primary_selection_device_v1_add_listener(ptr noundef %0, ptr noundef %1, ptr noundef %2) #2 {
  %4 = alloca ptr, align 8
  %5 = alloca ptr, align 8
  %6 = alloca ptr, align 8
  store ptr %0, ptr %4, align 8
  store ptr %1, ptr %5, align 8
  store ptr %2, ptr %6, align 8
  %7 = load ptr, ptr @WAYLAND_wl_proxy_add_listener, align 8
  %8 = load ptr, ptr %4, align 8
  %9 = load ptr, ptr %5, align 8
  %10 = load ptr, ptr %6, align 8
  %11 = call i32 %7(ptr noundef %8, ptr noundef %9, ptr noundef %10)
  ret i32 %11
}

; Function Attrs: inlinehint nounwind uwtable
define internal void @zwp_primary_selection_device_v1_set_user_data(ptr noundef %0, ptr noundef %1) #2 {
  %3 = alloca ptr, align 8
  %4 = alloca ptr, align 8
  store ptr %0, ptr %3, align 8
  store ptr %1, ptr %4, align 8
  %5 = load ptr, ptr @WAYLAND_wl_proxy_set_user_data, align 8
  %6 = load ptr, ptr %3, align 8
  %7 = load ptr, ptr %4, align 8
  call void %5(ptr noundef %6, ptr noundef %7)
  ret void
}

; Function Attrs: inlinehint nounwind uwtable
define internal ptr @zwp_primary_selection_device_manager_v1_get_device(ptr noundef %0, ptr noundef %1) #2 {
  %3 = alloca ptr, align 8
  %4 = alloca ptr, align 8
  %5 = alloca ptr, align 8
  store ptr %0, ptr %3, align 8
  store ptr %1, ptr %4, align 8
  call void @llvm.lifetime.start.p0(i64 8, ptr %5) #10
  %6 = load ptr, ptr @WAYLAND_wl_proxy_marshal_flags, align 8
  %7 = load ptr, ptr %3, align 8
  %8 = load ptr, ptr @WAYLAND_wl_proxy_get_version, align 8
  %9 = load ptr, ptr %3, align 8
  %10 = call i32 %8(ptr noundef %9)
  %11 = load ptr, ptr %4, align 8
  %12 = call ptr (ptr, i32, ptr, i32, i32, ...) %6(ptr noundef %7, i32 noundef 1, ptr noundef @zwp_primary_selection_device_v1_interface, i32 noundef %10, i32 noundef 0, ptr noundef null, ptr noundef %11)
  store ptr %12, ptr %5, align 8
  %13 = load ptr, ptr %5, align 8
  call void @llvm.lifetime.end.p0(i64 8, ptr %5) #10
  ret ptr %13
}

; Function Attrs: nounwind uwtable
define internal void @Wayland_SeatCreatePrimarySelectionDevice(ptr noundef %0) #0 {
  %2 = alloca ptr, align 8
  %3 = alloca ptr, align 8
  %4 = alloca i32, align 4
  store ptr %0, ptr %2, align 8
  %5 = load ptr, ptr %2, align 8
  %6 = getelementptr inbounds nuw %struct.SDL_WaylandSeat, ptr %5, i32 0, i32 0
  %7 = load ptr, ptr %6, align 8
  %8 = getelementptr inbounds nuw %struct.SDL_VideoData, ptr %7, i32 0, i32 13
  %9 = load ptr, ptr %8, align 8
  %10 = icmp ne ptr %9, null
  br i1 %10, label %12, label %11

11:                                               ; preds = %1
  br label %54

12:                                               ; preds = %1
  call void @llvm.lifetime.start.p0(i64 8, ptr %3) #10
  %13 = call noalias ptr @SDL_calloc_REAL(i64 noundef 1, i64 noundef 40) #12
  store ptr %13, ptr %3, align 8
  %14 = load ptr, ptr %3, align 8
  %15 = icmp ne ptr %14, null
  br i1 %15, label %17, label %16

16:                                               ; preds = %12
  store i32 1, ptr %4, align 4
  br label %52

17:                                               ; preds = %12
  %18 = load ptr, ptr %2, align 8
  %19 = getelementptr inbounds nuw %struct.SDL_WaylandSeat, ptr %18, i32 0, i32 0
  %20 = load ptr, ptr %19, align 8
  %21 = getelementptr inbounds nuw %struct.SDL_VideoData, ptr %20, i32 0, i32 13
  %22 = load ptr, ptr %21, align 8
  %23 = load ptr, ptr %2, align 8
  %24 = getelementptr inbounds nuw %struct.SDL_WaylandSeat, ptr %23, i32 0, i32 1
  %25 = load ptr, ptr %24, align 8
  %26 = call ptr @zwp_primary_selection_device_manager_v1_get_device(ptr noundef %22, ptr noundef %25)
  %27 = load ptr, ptr %3, align 8
  %28 = getelementptr inbounds nuw %struct.SDL_WaylandPrimarySelectionDevice, ptr %27, i32 0, i32 0
  store ptr %26, ptr %28, align 8
  %29 = load ptr, ptr %2, align 8
  %30 = load ptr, ptr %3, align 8
  %31 = getelementptr inbounds nuw %struct.SDL_WaylandPrimarySelectionDevice, ptr %30, i32 0, i32 1
  store ptr %29, ptr %31, align 8
  %32 = load ptr, ptr %3, align 8
  %33 = getelementptr inbounds nuw %struct.SDL_WaylandPrimarySelectionDevice, ptr %32, i32 0, i32 0
  %34 = load ptr, ptr %33, align 8
  %35 = icmp ne ptr %34, null
  br i1 %35, label %38, label %36

36:                                               ; preds = %17
  %37 = load ptr, ptr %3, align 8
  call void @SDL_free_REAL(ptr noundef %37)
  br label %51

38:                                               ; preds = %17
  %39 = load ptr, ptr %3, align 8
  %40 = getelementptr inbounds nuw %struct.SDL_WaylandPrimarySelectionDevice, ptr %39, i32 0, i32 0
  %41 = load ptr, ptr %40, align 8
  %42 = load ptr, ptr %3, align 8
  call void @zwp_primary_selection_device_v1_set_user_data(ptr noundef %41, ptr noundef %42)
  %43 = load ptr, ptr %3, align 8
  %44 = getelementptr inbounds nuw %struct.SDL_WaylandPrimarySelectionDevice, ptr %43, i32 0, i32 0
  %45 = load ptr, ptr %44, align 8
  %46 = load ptr, ptr %3, align 8
  %47 = call i32 @zwp_primary_selection_device_v1_add_listener(ptr noundef %45, ptr noundef @primary_selection_device_listener, ptr noundef %46)
  %48 = load ptr, ptr %3, align 8
  %49 = load ptr, ptr %2, align 8
  %50 = getelementptr inbounds nuw %struct.SDL_WaylandSeat, ptr %49, i32 0, i32 3
  store ptr %48, ptr %50, align 8
  br label %51

51:                                               ; preds = %38, %36
  store i32 0, ptr %4, align 4
  br label %52

52:                                               ; preds = %51, %16
  call void @llvm.lifetime.end.p0(i64 8, ptr %3) #10
  %53 = load i32, ptr %4, align 4
  switch i32 %53, label %55 [
    i32 0, label %54
    i32 1, label %54
  ]

54:                                               ; preds = %11, %52, %52
  ret void

55:                                               ; preds = %52
  unreachable
}

; Function Attrs: nounwind uwtable
define hidden void @Wayland_DisplayInitPrimarySelectionDeviceManager(ptr noundef %0) #0 {
  %2 = alloca ptr, align 8
  %3 = alloca ptr, align 8
  store ptr %0, ptr %2, align 8
  call void @llvm.lifetime.start.p0(i64 8, ptr %3) #10
  %4 = load ptr, ptr %2, align 8
  %5 = getelementptr inbounds nuw %struct.SDL_VideoData, ptr %4, i32 0, i32 31
  %6 = getelementptr inbounds nuw %struct.wl_list, ptr %5, i32 0, i32 1
  %7 = load ptr, ptr %6, align 8
  %8 = getelementptr inbounds i8, ptr %7, i64 -40
  store ptr %8, ptr %3, align 8
  br label %9

9:                                                ; preds = %17, %1
  %10 = load ptr, ptr %3, align 8
  %11 = getelementptr inbounds nuw %struct.SDL_WaylandSeat, ptr %10, i32 0, i32 5
  %12 = load ptr, ptr %2, align 8
  %13 = getelementptr inbounds nuw %struct.SDL_VideoData, ptr %12, i32 0, i32 31
  %14 = icmp ne ptr %11, %13
  br i1 %14, label %15, label %23

15:                                               ; preds = %9
  %16 = load ptr, ptr %3, align 8
  call void @Wayland_SeatCreatePrimarySelectionDevice(ptr noundef %16)
  br label %17

17:                                               ; preds = %15
  %18 = load ptr, ptr %3, align 8
  %19 = getelementptr inbounds nuw %struct.SDL_WaylandSeat, ptr %18, i32 0, i32 5
  %20 = getelementptr inbounds nuw %struct.wl_list, ptr %19, i32 0, i32 1
  %21 = load ptr, ptr %20, align 8
  %22 = getelementptr inbounds i8, ptr %21, i64 -40
  store ptr %22, ptr %3, align 8
  br label %9, !llvm.loop !13

23:                                               ; preds = %9
  call void @llvm.lifetime.end.p0(i64 8, ptr %3) #10
  ret void
}