; Function Attrs: nounwind uwtable
define hidden void @Wayland_DisplayInitPrimarySelectionDeviceManager(ptr noundef readonly captures(address) %0) local_unnamed_addr #0 {
  %2 = getelementptr inbounds nuw i8, ptr %0, i64 248
  %3 = getelementptr inbounds nuw i8, ptr %0, i64 256
  %.pn6 = load ptr, ptr %3, align 8
  %.not7 = icmp eq ptr %.pn6, %2
  br i1 %.not7, label %._crit_edge, label %.lr.ph

.lr.ph:                                           ; preds = %1, %Wayland_SeatCreatePrimarySelectionDevice.exit
  %.pn8 = phi ptr [ %.pn, %Wayland_SeatCreatePrimarySelectionDevice.exit ], [ %.pn6, %1 ]
  %.0 = getelementptr inbounds i8, ptr %.pn8, i64 -40
  %4 = load ptr, ptr %.0, align 8
  %5 = getelementptr inbounds nuw i8, ptr %4, i64 104
  %6 = load ptr, ptr %5, align 8
  %.not.i = icmp eq ptr %6, null
  br i1 %.not.i, label %Wayland_SeatCreatePrimarySelectionDevice.exit, label %7

7:                                                ; preds = %.lr.ph
  %8 = tail call noalias dereferenceable_or_null(40) ptr @SDL_calloc_REAL(i64 noundef 1, i64 noundef 40) #14
  %.not16.i = icmp eq ptr %8, null
  br i1 %.not16.i, label %Wayland_SeatCreatePrimarySelectionDevice.exit, label %9

9:                                                ; preds = %7
  %10 = load ptr, ptr %.0, align 8
  %11 = getelementptr inbounds nuw i8, ptr %10, i64 104
  %12 = load ptr, ptr %11, align 8
  %13 = getelementptr inbounds i8, ptr %.pn8, i64 -32
  %14 = load ptr, ptr %13, align 8
  %15 = load ptr, ptr @WAYLAND_wl_proxy_marshal_flags, align 8
  %16 = load ptr, ptr @WAYLAND_wl_proxy_get_version, align 8
  %17 = tail call i32 %16(ptr noundef %12) #12
  %18 = tail call ptr (ptr, i32, ptr, i32, i32, ...) %15(ptr noundef %12, i32 noundef 1, ptr noundef nonnull @zwp_primary_selection_device_v1_interface, i32 noundef %17, i32 noundef 0, ptr noundef null, ptr noundef %14) #12
  store ptr %18, ptr %8, align 8
  %19 = getelementptr inbounds nuw i8, ptr %8, i64 8
  store ptr %.0, ptr %19, align 8
  %.not17.i = icmp eq ptr %18, null
  br i1 %.not17.i, label %20, label %21

20:                                               ; preds = %9
  tail call void @SDL_free_REAL(ptr noundef nonnull %8) #12
  br label %Wayland_SeatCreatePrimarySelectionDevice.exit

21:                                               ; preds = %9
  %22 = load ptr, ptr @WAYLAND_wl_proxy_set_user_data, align 8
  tail call void %22(ptr noundef nonnull %18, ptr noundef nonnull %8) #12
  %23 = load ptr, ptr %8, align 8
  %24 = load ptr, ptr @WAYLAND_wl_proxy_add_listener, align 8
  %25 = tail call i32 %24(ptr noundef %23, ptr noundef nonnull @primary_selection_device_listener, ptr noundef nonnull %8) #12
  %26 = getelementptr inbounds i8, ptr %.pn8, i64 -16
  store ptr %8, ptr %26, align 8
  br label %Wayland_SeatCreatePrimarySelectionDevice.exit

Wayland_SeatCreatePrimarySelectionDevice.exit:    ; preds = %.lr.ph, %7, %20, %21
  %27 = getelementptr inbounds nuw i8, ptr %.pn8, i64 8
  %.pn = load ptr, ptr %27, align 8
  %.not = icmp eq ptr %.pn, %2
  br i1 %.not, label %._crit_edge, label %.lr.ph, !llvm.loop !13

._crit_edge:                                      ; preds = %Wayland_SeatCreatePrimarySelectionDevice.exit, %1
  ret void
}